target datalayout = "e-m:e-p270:32:32-p271:32:32-p272:64:64-i64:64-i128:128-f80:128-n8:16:32:64-S128"
target triple = "x86_64-pc-linux-gnu"

%"struct.g2o::HyperGraph::HyperGraphElement" = type { ptr }
%"class.g2o::HyperGraph::Edge" = type <{ %"struct.g2o::HyperGraph::HyperGraphElement", %"class.std::vector", i32, [4 x i8] }>
%"class.std::vector" = type { %"struct.std::_Vector_base" }
%"struct.std::_Vector_base" = type { %"struct.std::_Vector_base<g2o::HyperGraph::Vertex *, std::allocator<g2o::HyperGraph::Vertex *>>::_Vector_impl" }
%"struct.std::_Vector_base<g2o::HyperGraph::Vertex *, std::allocator<g2o::HyperGraph::Vertex *>>::_Vector_impl" = type { %"struct.std::_Vector_base<g2o::HyperGraph::Vertex *, std::allocator<g2o::HyperGraph::Vertex *>>::_Vector_impl_data" }
%"struct.std::_Vector_base<g2o::HyperGraph::Vertex *, std::allocator<g2o::HyperGraph::Vertex *>>::_Vector_impl_data" = type { ptr, ptr, ptr }
%"class.__gnu_cxx::__normal_iterator.12" = type { ptr }

; Function Attrs: mustprogress nounwind uwtable
define linkonce_odr void @_ZNSt12_Destroy_auxILb1EE9__destroyIPPN3g2o10HyperGraph6VertexEEEvT_S7_(ptr noundef %0, ptr noundef %1) #0 comdat align 2 {
  %3 = alloca ptr, align 8
  %4 = alloca ptr, align 8
  store ptr %0, ptr %3, align 8, !tbaa !49
  store ptr %1, ptr %4, align 8, !tbaa !49
  ret void
}

; Function Attrs: inlinehint mustprogress uwtable
define linkonce_odr void @_ZSt8_DestroyIPPN3g2o10HyperGraph6VertexEEvT_S5_(ptr noundef %0, ptr noundef %1) #5 comdat {
  %3 = alloca ptr, align 8
  %4 = alloca ptr, align 8
  store ptr %0, ptr %3, align 8, !tbaa !49
  store ptr %1, ptr %4, align 8, !tbaa !49
  %5 = load ptr, ptr %3, align 8, !tbaa !49
  %6 = load ptr, ptr %4, align 8, !tbaa !49
  call void @_ZNSt12_Destroy_auxILb1EE9__destroyIPPN3g2o10HyperGraph6VertexEEEvT_S7_(ptr noundef %5, ptr noundef %6)
  ret void
}

; Function Attrs: noinline noreturn nounwind uwtable
define linkonce_odr hidden void @__clang_call_terminate(ptr noundef %0) #8 comdat {
  %2 = call ptr @__cxa_begin_catch(ptr %0) #16
  call void @_ZSt9terminatev() #17
  unreachable
}

; Function Attrs: inlinehint mustprogress uwtable
define linkonce_odr void @_ZSt8_DestroyIPPN3g2o10HyperGraph6VertexES3_EvT_S5_RSaIT0_E(ptr noundef %0, ptr noundef %1, ptr noundef nonnull align 1 dereferenceable(1) %2) #5 comdat {
  %4 = alloca ptr, align 8
  %5 = alloca ptr, align 8
  %6 = alloca ptr, align 8
  store ptr %0, ptr %4, align 8, !tbaa !49
  store ptr %1, ptr %5, align 8, !tbaa !49
  store ptr %2, ptr %6, align 8, !tbaa !130
  %7 = load ptr, ptr %4, align 8, !tbaa !49
  %8 = load ptr, ptr %5, align 8, !tbaa !49
  call void @_ZSt8_DestroyIPPN3g2o10HyperGraph6VertexEEvT_S5_(ptr noundef %7, ptr noundef %8)
  ret void
}

; Function Attrs: mustprogress nounwind uwtable
define linkonce_odr noundef nonnull align 1 dereferenceable(1) ptr @_ZNSt12_Vector_baseIPN3g2o10HyperGraph6VertexESaIS3_EE19_M_get_Tp_allocatorEv(ptr noundef nonnull align 8 dereferenceable(24) %0) #0 comdat align 2 {
  %2 = alloca ptr, align 8
  store ptr %0, ptr %2, align 8, !tbaa !126
  %3 = load ptr, ptr %2, align 8
  %4 = getelementptr inbounds nuw %"struct.std::_Vector_base", ptr %3, i32 0, i32 0
  ret ptr %4
}

; Function Attrs: mustprogress nounwind uwtable
define linkonce_odr void @_ZN9__gnu_cxx17__normal_iteratorIPPN3g2o10HyperGraph6VertexESt6vectorIS4_SaIS4_EEEC2ERKS5_(ptr noundef nonnull align 8 dereferenceable(8) %0, ptr noundef nonnull align 8 dereferenceable(8) %1) unnamed_addr #0 comdat align 2 {
  %3 = alloca ptr, align 8
  %4 = alloca ptr, align 8
  store ptr %0, ptr %3, align 8, !tbaa !79
  store ptr %1, ptr %4, align 8, !tbaa !234
  %5 = load ptr, ptr %3, align 8
  %6 = getelementptr inbounds nuw %"class.__gnu_cxx::__normal_iterator.12", ptr %5, i32 0, i32 0
  %7 = load ptr, ptr %4, align 8, !tbaa !234
  %8 = load ptr, ptr %7, align 8, !tbaa !49
  store ptr %8, ptr %6, align 8, !tbaa !81
  ret void
}

; Function Attrs: mustprogress nounwind uwtable
define linkonce_odr void @_ZNSt6vectorIPN3g2o10HyperGraph6VertexESaIS3_EE15_M_erase_at_endEPS3_(ptr noundef nonnull align 8 dereferenceable(24) %0, ptr noundef %1) #0 comdat align 2 personality ptr @__gxx_personality_v0 {
  %3 = alloca ptr, align 8
  %4 = alloca ptr, align 8
  %5 = alloca i64, align 8
  store ptr %0, ptr %3, align 8, !tbaa !44
  store ptr %1, ptr %4, align 8, !tbaa !49
  %6 = load ptr, ptr %3, align 8
  call void @llvm.lifetime.start.p0(i64 8, ptr %5) #16
  %7 = getelementptr inbounds nuw %"struct.std::_Vector_base", ptr %6, i32 0, i32 0
  %8 = getelementptr inbounds nuw %"struct.std::_Vector_base<g2o::HyperGraph::Vertex *, std::allocator<g2o::HyperGraph::Vertex *>>::_Vector_impl_data", ptr %7, i32 0, i32 1
  %9 = load ptr, ptr %8, align 8, !tbaa !47
  %10 = load ptr, ptr %4, align 8, !tbaa !49
  %11 = ptrtoint ptr %9 to i64
  %12 = ptrtoint ptr %10 to i64
  %13 = sub i64 %11, %12
  %14 = sdiv exact i64 %13, 8
  store i64 %14, ptr %5, align 8, !tbaa !50
  %15 = load i64, ptr %5, align 8, !tbaa !50
  %16 = icmp ne i64 %15, 0
  br i1 %16, label %17, label %27

17:                                               ; preds = %2
  %18 = load ptr, ptr %4, align 8, !tbaa !49
  %19 = getelementptr inbounds nuw %"struct.std::_Vector_base", ptr %6, i32 0, i32 0
  %20 = getelementptr inbounds nuw %"struct.std::_Vector_base<g2o::HyperGraph::Vertex *, std::allocator<g2o::HyperGraph::Vertex *>>::_Vector_impl_data", ptr %19, i32 0, i32 1
  %21 = load ptr, ptr %20, align 8, !tbaa !47
  %22 = call noundef nonnull align 1 dereferenceable(1) ptr @_ZNSt12_Vector_baseIPN3g2o10HyperGraph6VertexESaIS3_EE19_M_get_Tp_allocatorEv(ptr noundef nonnull align 8 dereferenceable(24) %6) #16
  invoke void @_ZSt8_DestroyIPPN3g2o10HyperGraph6VertexES3_EvT_S5_RSaIT0_E(ptr noundef %18, ptr noundef %21, ptr noundef nonnull align 1 dereferenceable(1) %22)
          to label %23 unwind label %28

23:                                               ; preds = %17
  %24 = load ptr, ptr %4, align 8, !tbaa !49
  %25 = getelementptr inbounds nuw %"struct.std::_Vector_base", ptr %6, i32 0, i32 0
  %26 = getelementptr inbounds nuw %"struct.std::_Vector_base<g2o::HyperGraph::Vertex *, std::allocator<g2o::HyperGraph::Vertex *>>::_Vector_impl_data", ptr %25, i32 0, i32 1
  store ptr %24, ptr %26, align 8, !tbaa !47
  br label %27

27:                                               ; preds = %23, %2
  call void @llvm.lifetime.end.p0(i64 8, ptr %5) #16
  ret void

28:                                               ; preds = %17
  %29 = landingpad { ptr, i32 }
          catch ptr null
  %30 = extractvalue { ptr, i32 } %29, 0
  call void @__clang_call_terminate(ptr %30) #17
  unreachable
}

; Function Attrs: mustprogress nounwind uwtable
define linkonce_odr ptr @_ZNSt6vectorIPN3g2o10HyperGraph6VertexESaIS3_EE3endEv(ptr noundef nonnull align 8 dereferenceable(24) %0) #0 comdat align 2 {
  %2 = alloca %"class.__gnu_cxx::__normal_iterator.12", align 8
  %3 = alloca ptr, align 8
  store ptr %0, ptr %3, align 8, !tbaa !44
  %4 = load ptr, ptr %3, align 8
  %5 = getelementptr inbounds nuw %"struct.std::_Vector_base", ptr %4, i32 0, i32 0
  %6 = getelementptr inbounds nuw %"struct.std::_Vector_base<g2o::HyperGraph::Vertex *, std::allocator<g2o::HyperGraph::Vertex *>>::_Vector_impl_data", ptr %5, i32 0, i32 1
  call void @_ZN9__gnu_cxx17__normal_iteratorIPPN3g2o10HyperGraph6VertexESt6vectorIS4_SaIS4_EEEC2ERKS5_(ptr noundef nonnull align 8 dereferenceable(8) %2, ptr noundef nonnull align 8 dereferenceable(8) %6) #16
  %7 = getelementptr inbounds nuw %"class.__gnu_cxx::__normal_iterator.12", ptr %2, i32 0, i32 0
  %8 = load ptr, ptr %7, align 8
  ret ptr %8
}

; Function Attrs: mustprogress nounwind uwtable
define linkonce_odr noundef i64 @_ZNKSt6vectorIPN3g2o10HyperGraph6VertexESaIS3_EE4sizeEv(ptr noundef nonnull align 8 dereferenceable(24) %0) #0 comdat align 2 {
  %2 = alloca ptr, align 8
  store ptr %0, ptr %2, align 8, !tbaa !44
  %3 = load ptr, ptr %2, align 8
  %4 = getelementptr inbounds nuw %"struct.std::_Vector_base", ptr %3, i32 0, i32 0
  %5 = getelementptr inbounds nuw %"struct.std::_Vector_base<g2o::HyperGraph::Vertex *, std::allocator<g2o::HyperGraph::Vertex *>>::_Vector_impl_data", ptr %4, i32 0, i32 1
  %6 = load ptr, ptr %5, align 8, !tbaa !47
  %7 = getelementptr inbounds nuw %"struct.std::_Vector_base", ptr %3, i32 0, i32 0
  %8 = getelementptr inbounds nuw %"struct.std::_Vector_base<g2o::HyperGraph::Vertex *, std::allocator<g2o::HyperGraph::Vertex *>>::_Vector_impl_data", ptr %7, i32 0, i32 0
  %9 = load ptr, ptr %8, align 8, !tbaa !46
  %10 = ptrtoint ptr %6 to i64
  %11 = ptrtoint ptr %9 to i64
  %12 = sub i64 %10, %11
  %13 = sdiv exact i64 %12, 8
  ret i64 %13
}

; Function Attrs: mustprogress uwtable
define linkonce_odr void @_ZNSt6vectorIPN3g2o10HyperGraph6VertexESaIS3_EE6resizeEmRKS3_(ptr noundef nonnull align 8 dereferenceable(24) %0, i64 noundef %1, ptr noundef nonnull align 8 dereferenceable(8) %2) #4 comdat align 2 {
  %4 = alloca ptr, align 8
  %5 = alloca i64, align 8
  %6 = alloca ptr, align 8
  %7 = alloca %"class.__gnu_cxx::__normal_iterator.12", align 8
  store ptr %0, ptr %4, align 8, !tbaa !44
  store i64 %1, ptr %5, align 8, !tbaa !50
  store ptr %2, ptr %6, align 8, !tbaa !49
  %8 = load ptr, ptr %4, align 8
  %9 = load i64, ptr %5, align 8, !tbaa !50
  %10 = call noundef i64 @_ZNKSt6vectorIPN3g2o10HyperGraph6VertexESaIS3_EE4sizeEv(ptr noundef nonnull align 8 dereferenceable(24) %8) #16
  %11 = icmp ugt i64 %9, %10
  br i1 %11, label %12, label %21

12:                                               ; preds = %3
  %13 = call ptr @_ZNSt6vectorIPN3g2o10HyperGraph6VertexESaIS3_EE3endEv(ptr noundef nonnull align 8 dereferenceable(24) %8) #16
  %14 = getelementptr inbounds nuw %"class.__gnu_cxx::__normal_iterator.12", ptr %7, i32 0, i32 0
  store ptr %13, ptr %14, align 8
  %15 = load i64, ptr %5, align 8, !tbaa !50
  %16 = call noundef i64 @_ZNKSt6vectorIPN3g2o10HyperGraph6VertexESaIS3_EE4sizeEv(ptr noundef nonnull align 8 dereferenceable(24) %8) #16
  %17 = sub i64 %15, %16
  %18 = load ptr, ptr %6, align 8, !tbaa !49
  %19 = getelementptr inbounds nuw %"class.__gnu_cxx::__normal_iterator.12", ptr %7, i32 0, i32 0
  %20 = load ptr, ptr %19, align 8
  call void @_ZNSt6vectorIPN3g2o10HyperGraph6VertexESaIS3_EE14_M_fill_insertEN9__gnu_cxx17__normal_iteratorIPS3_S5_EEmRKS3_(ptr noundef nonnull align 8 dereferenceable(24) %8, ptr %20, i64 noundef %17, ptr noundef nonnull align 8 dereferenceable(8) %18)
  br label %32

21:                                               ; preds = %3
  %22 = load i64, ptr %5, align 8, !tbaa !50
  %23 = call noundef i64 @_ZNKSt6vectorIPN3g2o10HyperGraph6VertexESaIS3_EE4sizeEv(ptr noundef nonnull align 8 dereferenceable(24) %8) #16
  %24 = icmp ult i64 %22, %23
  br i1 %24, label %25, label %31

25:                                               ; preds = %21
  %26 = getelementptr inbounds nuw %"struct.std::_Vector_base", ptr %8, i32 0, i32 0
  %27 = getelementptr inbounds nuw %"struct.std::_Vector_base<g2o::HyperGraph::Vertex *, std::allocator<g2o::HyperGraph::Vertex *>>::_Vector_impl_data", ptr %26, i32 0, i32 0
  %28 = load ptr, ptr %27, align 8, !tbaa !46
  %29 = load i64, ptr %5, align 8, !tbaa !50
  %30 = getelementptr inbounds nuw ptr, ptr %28, i64 %29
  call void @_ZNSt6vectorIPN3g2o10HyperGraph6VertexESaIS3_EE15_M_erase_at_endEPS3_(ptr noundef nonnull align 8 dereferenceable(24) %8, ptr noundef %30) #16
  br label %31

31:                                               ; preds = %25, %21
  br label %32

32:                                               ; preds = %31, %12
  ret void
}

; Function Attrs: mustprogress uwtable
define void @_ZN3g2o10HyperGraph4Edge6resizeEm(ptr noundef nonnull align 8 dereferenceable(36) %0, i64 noundef %1) unnamed_addr #4 align 2 {
  %3 = alloca ptr, align 8
  %4 = alloca i64, align 8
  %5 = alloca ptr, align 8
  store ptr %0, ptr %3, align 8, !tbaa !35
  store i64 %1, ptr %4, align 8, !tbaa !50
  %6 = load ptr, ptr %3, align 8
  %7 = getelementptr inbounds nuw %"class.g2o::HyperGraph::Edge", ptr %6, i32 0, i32 1
  %8 = load i64, ptr %4, align 8, !tbaa !50
  call void @llvm.lifetime.start.p0(i64 8, ptr %5) #16
  store ptr null, ptr %5, align 8, !tbaa !17
  call void @_ZNSt6vectorIPN3g2o10HyperGraph6VertexESaIS3_EE6resizeEmRKS3_(ptr noundef nonnull align 8 dereferenceable(24) %7, i64 noundef %8, ptr noundef nonnull align 8 dereferenceable(8) %5)
  call void @llvm.lifetime.end.p0(i64 8, ptr %5) #16
  ret void
}