; Function Attrs: mustprogress uwtable
define void @_ZN3g2o10HyperGraph4Edge6resizeEm(ptr noundef nonnull align 8 dereferenceable(36) %0, i64 noundef %1) unnamed_addr #6 align 2 personality ptr @__gxx_personality_v0 {
  %3 = alloca ptr, align 8
  %4 = getelementptr inbounds nuw i8, ptr %0, i64 8
  call void @llvm.lifetime.start.p0(i64 8, ptr nonnull %3) #19
  store ptr null, ptr %3, align 8, !tbaa !41
  %5 = getelementptr inbounds nuw i8, ptr %0, i64 16
  %6 = load ptr, ptr %5, align 8, !tbaa !45
  %7 = load ptr, ptr %4, align 8, !tbaa !38
  %8 = ptrtoint ptr %6 to i64
  %9 = ptrtoint ptr %7 to i64
  %10 = sub i64 %8, %9
  %11 = ashr exact i64 %10, 3
  %12 = icmp ugt i64 %1, %11
  br i1 %12, label %13, label %15

13:                                               ; preds = %2
  %14 = sub nuw i64 %1, %11
  call void @_ZNSt6vectorIPN3g2o10HyperGraph6VertexESaIS3_EE14_M_fill_insertEN9__gnu_cxx17__normal_iteratorIPS3_S5_EEmRKS3_(ptr noundef nonnull align 8 dereferenceable(24) %4, ptr %6, i64 noundef %14, ptr noundef nonnull align 8 dereferenceable(8) %3)
  br label %_ZNSt6vectorIPN3g2o10HyperGraph6VertexESaIS3_EE6resizeEmRKS3_.exit

15:                                               ; preds = %2
  %16 = icmp ult i64 %1, %11
  br i1 %16, label %17, label %_ZNSt6vectorIPN3g2o10HyperGraph6VertexESaIS3_EE6resizeEmRKS3_.exit

17:                                               ; preds = %15
  %18 = getelementptr inbounds nuw ptr, ptr %7, i64 %1
  %.not.i.i = icmp eq ptr %6, %18
  br i1 %.not.i.i, label %_ZNSt6vectorIPN3g2o10HyperGraph6VertexESaIS3_EE6resizeEmRKS3_.exit, label %19

19:                                               ; preds = %17
  store ptr %18, ptr %5, align 8, !tbaa !45
  br label %_ZNSt6vectorIPN3g2o10HyperGraph6VertexESaIS3_EE6resizeEmRKS3_.exit

_ZNSt6vectorIPN3g2o10HyperGraph6VertexESaIS3_EE6resizeEmRKS3_.exit: ; preds = %13, %15, %17, %19
  call void @llvm.lifetime.end.p0(i64 8, ptr nonnull %3) #19
  ret void
}